; Function Attrs: mustprogress uwtable
define noundef ptr @_ZN6google8protobuf8internal19PackedFixed64ParserEPvPKcPNS1_12ParseContextE(ptr noundef %object, ptr noundef %ptr, ptr noundef %ctx) local_unnamed_addr #4 {
entry:
  %0 = load i8, ptr %ptr, align 1
  %conv.i.i = zext i8 %0 to i32
  %cmp.i.i = icmp sgt i8 %0, -1
  br i1 %cmp.i.i, label %if.then.i.i, label %for.body.i.i.i

if.then.i.i:                                      ; preds = %entry
  %add.ptr.i.i = getelementptr inbounds nuw i8, ptr %ptr, i64 1
  br label %_ZN6google8protobuf8internal11FixedParserImEEPKcPvS4_PNS1_12ParseContextE.exit

for.cond.i.i.i:                                   ; preds = %for.body.i.i.i
  %indvars.iv.next.i.i.i = add nuw nsw i64 %indvars.iv.i.i.i, 1
  %exitcond.not.i.i.i = icmp eq i64 %indvars.iv.next.i.i.i, 4
  br i1 %exitcond.not.i.i.i, label %for.end.i.i.i, label %for.body.i.i.i, !llvm.loop !7

for.body.i.i.i:                                   ; preds = %entry, %for.cond.i.i.i
  %indvars.iv.i.i.i = phi i64 [ %indvars.iv.next.i.i.i, %for.cond.i.i.i ], [ 1, %entry ]
  %res.addr.018.i.i.i = phi i32 [ %add.i.i.i, %for.cond.i.i.i ], [ %conv.i.i, %entry ]
  %arrayidx.i.i.i = getelementptr inbounds nuw i8, ptr %ptr, i64 %indvars.iv.i.i.i
  %1 = load i8, ptr %arrayidx.i.i.i, align 1
  %conv.i.i.i = zext i8 %1 to i32
  %sub.i.i.i = add nsw i32 %conv.i.i.i, -1
  %2 = trunc i64 %indvars.iv.i.i.i to i32
  %3 = mul i32 %2, 7
  %shl.i.i.i = shl nsw i32 %sub.i.i.i, %3
  %add.i.i.i = add i32 %shl.i.i.i, %res.addr.018.i.i.i
  %cmp1.i.i.i = icmp sgt i8 %1, -1
  br i1 %cmp1.i.i.i, label %if.then.i.i.i, label %for.cond.i.i.i

if.then.i.i.i:                                    ; preds = %for.body.i.i.i
  %arrayidx.i.i.i.le = getelementptr inbounds nuw i8, ptr %ptr, i64 %indvars.iv.i.i.i
  %add.ptr3.i.i.i = getelementptr inbounds nuw i8, ptr %arrayidx.i.i.i.le, i64 1
  br label %_ZN6google8protobuf8internal11FixedParserImEEPKcPvS4_PNS1_12ParseContextE.exit

for.end.i.i.i:                                    ; preds = %for.cond.i.i.i
  %arrayidx5.i.i.i = getelementptr inbounds nuw i8, ptr %ptr, i64 4
  %4 = load i8, ptr %arrayidx5.i.i.i, align 1
  %cmp7.i.i.i = icmp ugt i8 %4, 7
  br i1 %cmp7.i.i.i, label %_ZN6google8protobuf8internal11FixedParserImEEPKcPvS4_PNS1_12ParseContextE.exit, label %if.end12.i.i.i

if.end12.i.i.i:                                   ; preds = %for.end.i.i.i
  %conv6.i.i.i = zext nneg i8 %4 to i32
  %sub13.i.i.i = shl nuw nsw i32 %conv6.i.i.i, 28
  %shl14.i.i.i = add i32 %add.i.i.i, -268435456
  %add15.i.i.i = add i32 %shl14.i.i.i, %sub13.i.i.i
  %cmp16.i.i.i = icmp ugt i32 %add15.i.i.i, 2147483631
  %add.ptr23.i.i.i = getelementptr inbounds nuw i8, ptr %ptr, i64 5
  %spec.select.i.i.i = select i1 %cmp16.i.i.i, ptr null, ptr %add.ptr23.i.i.i
  %spec.select16.i.i.i = select i1 %cmp16.i.i.i, i32 0, i32 %add15.i.i.i
  br label %_ZN6google8protobuf8internal11FixedParserImEEPKcPvS4_PNS1_12ParseContextE.exit

_ZN6google8protobuf8internal11FixedParserImEEPKcPvS4_PNS1_12ParseContextE.exit: ; preds = %if.then.i.i, %if.then.i.i.i, %for.end.i.i.i, %if.end12.i.i.i
  %storemerge.i.i = phi ptr [ %add.ptr.i.i, %if.then.i.i ], [ %add.ptr3.i.i.i, %if.then.i.i.i ], [ null, %for.end.i.i.i ], [ %spec.select.i.i.i, %if.end12.i.i.i ]
  %retval.0.i.i = phi i32 [ %conv.i.i, %if.then.i.i ], [ %add.i.i.i, %if.then.i.i.i ], [ 0, %for.end.i.i.i ], [ %spec.select16.i.i.i, %if.end12.i.i.i ]
  %call1.i = tail call noundef ptr @_ZN6google8protobuf8internal18EpsCopyInputStream15ReadPackedFixedImEEPKcS5_iPNS0_13RepeatedFieldIT_EE(ptr noundef nonnull align 8 dereferenceable(88) %ctx, ptr noundef %storemerge.i.i, i32 noundef %retval.0.i.i, ptr noundef %object)
  ret ptr %call1.i
}